target datalayout = "e-m:e-p270:32:32-p271:32:32-p272:64:64-i64:64-i128:128-f80:128-n8:16:32:64-S128"
target triple = "x86_64-pc-linux-gnu"

%"class.icu_77::UMutex" = type { [40 x i8], %"struct.std::atomic", ptr }
%"struct.std::atomic" = type { %"struct.std::__atomic_base" }
%"struct.std::__atomic_base" = type { ptr }
%"class.icu_77::UnicodeString" = type { %"class.icu_77::Replaceable", %"union.icu_77::UnicodeString::StackBufferOrFields" }
%"class.icu_77::Replaceable" = type { %"class.icu_77::UObject" }
%"class.icu_77::UObject" = type { ptr }
%"union.icu_77::UnicodeString::StackBufferOrFields" = type { %struct.anon.0, [32 x i8] }
%struct.anon.0 = type { i16, i32, i32, ptr }
%"class.icu_77::TimeZoneFormat" = type { %"class.icu_77::Format", %"class.icu_77::Locale", [4 x i8], ptr, ptr, %"class.icu_77::UnicodeString", [6 x %"class.icu_77::UnicodeString"], [10 x i32], %"class.icu_77::UnicodeString", i32, %"class.icu_77::UnicodeString", %"class.icu_77::UnicodeString", [6 x ptr], i8, ptr }
%"class.icu_77::Format" = type { %"class.icu_77::UObject", ptr, ptr }
%"class.icu_77::Locale" = type <{ %"class.icu_77::UObject", [12 x i8], [6 x i8], [4 x i8], [2 x i8], i32, [4 x i8], ptr, [157 x i8], [3 x i8], ptr, i8, [7 x i8] }>

@_ZN6icu_77L5gLockE = internal global %"class.icu_77::UMutex" zeroinitializer, align 8

; Function Attrs: inlinehint mustprogress nounwind uwtable
define internal noundef signext i8 @_ZL9U_FAILURE10UErrorCode(i32 noundef %0) #2 {
  %2 = alloca i32, align 4
  store i32 %0, ptr %2, align 4, !tbaa !15
  %3 = load i32, ptr %2, align 4, !tbaa !15
  %4 = icmp sgt i32 %3, 0
  %5 = zext i1 %4 to i8
  ret i8 %5
}

; Function Attrs: mustprogress uwtable
define noundef ptr @_ZNK6icu_7714TimeZoneFormat20getTZDBTimeZoneNamesER10UErrorCode(ptr noundef nonnull align 8 dereferenceable(1024) %0, ptr noundef nonnull align 4 dereferenceable(4) %1) #1 align 2 personality ptr @__gxx_personality_v0 {
  %3 = alloca ptr, align 8
  %4 = alloca ptr, align 8
  %5 = alloca ptr, align 8
  %6 = alloca ptr, align 8
  %7 = alloca ptr, align 8
  %8 = alloca i1, align 1
  %9 = alloca ptr, align 8
  %10 = alloca i32, align 4
  %11 = alloca ptr, align 8
  store ptr %0, ptr %4, align 8, !tbaa !39
  store ptr %1, ptr %5, align 8, !tbaa !22
  %12 = load ptr, ptr %4, align 8
  %13 = load ptr, ptr %5, align 8, !tbaa !22
  %14 = load i32, ptr %13, align 4, !tbaa !15
  %15 = call noundef signext i8 @_ZL9U_FAILURE10UErrorCode(i32 noundef %14)
  %16 = icmp ne i8 %15, 0
  br i1 %16, label %17, label %18

17:                                               ; preds = %2
  store ptr null, ptr %3, align 8
  br label %50

18:                                               ; preds = %2
  call void @umtx_lock_77(ptr noundef @_ZN6icu_77L5gLockE)
  %19 = getelementptr inbounds nuw %"class.icu_77::TimeZoneFormat", ptr %12, i32 0, i32 14
  %20 = load ptr, ptr %19, align 8, !tbaa !56
  %21 = icmp eq ptr %20, null
  br i1 %21, label %22, label %47

22:                                               ; preds = %18
  call void @llvm.lifetime.start.p0(i64 8, ptr %6) #15
  %23 = call noundef ptr @_ZN6icu_777UMemorynwEm(i64 noundef 296) #15
  %24 = icmp eq ptr %23, null
  store i1 false, ptr %8, align 1
  br i1 %24, label %28, label %25

25:                                               ; preds = %22
  store ptr %23, ptr %7, align 8
  store i1 true, ptr %8, align 1
  %26 = getelementptr inbounds nuw %"class.icu_77::TimeZoneFormat", ptr %12, i32 0, i32 1
  invoke void @_ZN6icu_7717TZDBTimeZoneNamesC1ERKNS_6LocaleE(ptr noundef nonnull align 8 dereferenceable(296) %23, ptr noundef nonnull align 8 dereferenceable(217) %26)
          to label %27 unwind label %34

27:                                               ; preds = %25
  br label %28

28:                                               ; preds = %27, %22
  %29 = phi ptr [ %23, %27 ], [ null, %22 ]
  store ptr %29, ptr %6, align 8, !tbaa !124
  %30 = load ptr, ptr %6, align 8, !tbaa !124
  %31 = icmp eq ptr %30, null
  br i1 %31, label %32, label %42

32:                                               ; preds = %28
  %33 = load ptr, ptr %5, align 8, !tbaa !22
  store i32 7, ptr %33, align 4, !tbaa !15
  br label %46

34:                                               ; preds = %25
  %35 = landingpad { ptr, i32 }
          cleanup
  %36 = extractvalue { ptr, i32 } %35, 0
  store ptr %36, ptr %9, align 8
  %37 = extractvalue { ptr, i32 } %35, 1
  store i32 %37, ptr %10, align 4
  %38 = load i1, ptr %8, align 1
  br i1 %38, label %39, label %41

39:                                               ; preds = %34
  %40 = load ptr, ptr %7, align 8
  call void @_ZN6icu_777UMemorydlEPv(ptr noundef %40) #15
  br label %41

41:                                               ; preds = %39, %34
  call void @llvm.lifetime.end.p0(i64 8, ptr %6) #15
  br label %52

42:                                               ; preds = %28
  call void @llvm.lifetime.start.p0(i64 8, ptr %11) #15
  store ptr %12, ptr %11, align 8, !tbaa !39
  %43 = load ptr, ptr %6, align 8, !tbaa !124
  %44 = load ptr, ptr %11, align 8, !tbaa !39
  %45 = getelementptr inbounds nuw %"class.icu_77::TimeZoneFormat", ptr %44, i32 0, i32 14
  store ptr %43, ptr %45, align 8, !tbaa !56
  call void @llvm.lifetime.end.p0(i64 8, ptr %11) #15
  br label %46

46:                                               ; preds = %42, %32
  call void @llvm.lifetime.end.p0(i64 8, ptr %6) #15
  br label %47

47:                                               ; preds = %46, %18
  call void @umtx_unlock_77(ptr noundef @_ZN6icu_77L5gLockE)
  %48 = getelementptr inbounds nuw %"class.icu_77::TimeZoneFormat", ptr %12, i32 0, i32 14
  %49 = load ptr, ptr %48, align 8, !tbaa !56
  store ptr %49, ptr %3, align 8
  br label %50

50:                                               ; preds = %47, %17
  %51 = load ptr, ptr %3, align 8
  ret ptr %51

52:                                               ; preds = %41
  %53 = load ptr, ptr %9, align 8
  %54 = load i32, ptr %10, align 4
  %55 = insertvalue { ptr, i32 } poison, ptr %53, 0
  %56 = insertvalue { ptr, i32 } %55, i32 %54, 1
  resume { ptr, i32 } %56
}