; Function Attrs: mustprogress uwtable
define noundef ptr @_ZNK6icu_7714TimeZoneFormat20getTZDBTimeZoneNamesER10UErrorCode(ptr noundef nonnull align 8 dereferenceable(1024) %0, ptr noundef nonnull align 4 captures(none) dereferenceable(4) %1) local_unnamed_addr #1 align 2 personality ptr @__gxx_personality_v0 {
  %3 = load i32, ptr %1, align 4, !tbaa !13
  %4 = icmp slt i32 %3, 1
  br i1 %4, label %5, label %20

5:                                                ; preds = %2
  tail call void @umtx_lock_77(ptr noundef nonnull @_ZN6icu_77L5gLockE)
  %6 = getelementptr inbounds nuw i8, ptr %0, i64 1016
  %7 = load ptr, ptr %6, align 8, !tbaa !37
  %8 = icmp eq ptr %7, null
  br i1 %8, label %9, label %18

9:                                                ; preds = %5
  %10 = tail call noundef ptr @_ZN6icu_777UMemorynwEm(i64 noundef 296) #22
  %11 = icmp eq ptr %10, null
  br i1 %11, label %14, label %12

12:                                               ; preds = %9
  %13 = getelementptr inbounds nuw i8, ptr %0, i64 24
  invoke void @_ZN6icu_7717TZDBTimeZoneNamesC1ERKNS_6LocaleE(ptr noundef nonnull align 8 dereferenceable(296) %10, ptr noundef nonnull align 8 dereferenceable(217) %13)
          to label %17 unwind label %15

14:                                               ; preds = %9
  store i32 7, ptr %1, align 4, !tbaa !13
  br label %18

15:                                               ; preds = %12
  %16 = landingpad { ptr, i32 }
          cleanup
  tail call void @_ZN6icu_777UMemorydlEPv(ptr noundef nonnull %10) #22
  resume { ptr, i32 } %16

17:                                               ; preds = %12
  store ptr %10, ptr %6, align 8, !tbaa !37
  br label %18

18:                                               ; preds = %14, %17, %5
  tail call void @umtx_unlock_77(ptr noundef nonnull @_ZN6icu_77L5gLockE)
  %19 = load ptr, ptr %6, align 8, !tbaa !37
  br label %20

20:                                               ; preds = %2, %18
  %.0 = phi ptr [ %19, %18 ], [ null, %2 ]
  ret ptr %.0
}